target datalayout = "e-m:e-p270:32:32-p271:32:32-p272:64:64-i64:64-i128:128-f80:128-n8:16:32:64-S128"
target triple = "x86_64-pc-linux-gnu"

; Function Attrs: nounwind uwtable
define ptr @ossl_d2i_PUBKEY_legacy(ptr noundef %0, ptr noundef %1, i64 noundef %2) #0 {
  %4 = alloca ptr, align 8
  %5 = alloca ptr, align 8
  %6 = alloca i64, align 8
  store ptr %0, ptr %4, align 8, !tbaa !37
  store ptr %1, ptr %5, align 8, !tbaa !3
  store i64 %2, ptr %6, align 8, !tbaa !8
  %7 = load ptr, ptr %4, align 8, !tbaa !37
  %8 = load ptr, ptr %5, align 8, !tbaa !3
  %9 = load i64, ptr %6, align 8, !tbaa !8
  %10 = call ptr @d2i_PUBKEY_int(ptr noundef %7, ptr noundef %8, i64 noundef %9, ptr noundef null, ptr noundef null, i32 noundef 1, ptr noundef @d2i_X509_PUBKEY)
  ret ptr %10
}

; Function Attrs: nounwind uwtable
define ptr @ossl_d2i_ED25519_PUBKEY(ptr noundef %0, ptr noundef %1, i64 noundef %2) #0 {
  %4 = alloca ptr, align 8
  %5 = alloca ptr, align 8
  %6 = alloca ptr, align 8
  %7 = alloca i64, align 8
  %8 = alloca ptr, align 8
  %9 = alloca ptr, align 8
  %10 = alloca ptr, align 8
  %11 = alloca i32, align 4
  store ptr %0, ptr %5, align 8, !tbaa !90
  store ptr %1, ptr %6, align 8, !tbaa !3
  store i64 %2, ptr %7, align 8, !tbaa !8
  call void @llvm.lifetime.start.p0(i64 8, ptr %8) #5
  call void @llvm.lifetime.start.p0(i64 8, ptr %9) #5
  store ptr null, ptr %9, align 8, !tbaa !92
  call void @llvm.lifetime.start.p0(i64 8, ptr %10) #5
  %12 = load ptr, ptr %6, align 8, !tbaa !3
  %13 = load ptr, ptr %12, align 8, !tbaa !12
  store ptr %13, ptr %10, align 8, !tbaa !12
  %14 = load i64, ptr %7, align 8, !tbaa !8
  %15 = call ptr @ossl_d2i_PUBKEY_legacy(ptr noundef null, ptr noundef %10, i64 noundef %14)
  store ptr %15, ptr %8, align 8, !tbaa !46
  %16 = load ptr, ptr %8, align 8, !tbaa !46
  %17 = icmp eq ptr %16, null
  br i1 %17, label %18, label %19

18:                                               ; preds = %3
  store ptr null, ptr %4, align 8
  store i32 1, ptr %11, align 4
  br label %38

19:                                               ; preds = %3
  %20 = load ptr, ptr %8, align 8, !tbaa !46
  %21 = call ptr @ossl_evp_pkey_get1_ED25519(ptr noundef %20)
  store ptr %21, ptr %9, align 8, !tbaa !92
  %22 = load ptr, ptr %8, align 8, !tbaa !46
  call void @EVP_PKEY_free(ptr noundef %22)
  %23 = load ptr, ptr %9, align 8, !tbaa !92
  %24 = icmp eq ptr %23, null
  br i1 %24, label %25, label %26

25:                                               ; preds = %19
  store ptr null, ptr %4, align 8
  store i32 1, ptr %11, align 4
  br label %38

26:                                               ; preds = %19
  %27 = load ptr, ptr %10, align 8, !tbaa !12
  %28 = load ptr, ptr %6, align 8, !tbaa !3
  store ptr %27, ptr %28, align 8, !tbaa !12
  %29 = load ptr, ptr %5, align 8, !tbaa !90
  %30 = icmp ne ptr %29, null
  br i1 %30, label %31, label %36

31:                                               ; preds = %26
  %32 = load ptr, ptr %5, align 8, !tbaa !90
  %33 = load ptr, ptr %32, align 8, !tbaa !92
  call void @ossl_ecx_key_free(ptr noundef %33)
  %34 = load ptr, ptr %9, align 8, !tbaa !92
  %35 = load ptr, ptr %5, align 8, !tbaa !90
  store ptr %34, ptr %35, align 8, !tbaa !92
  br label %36

36:                                               ; preds = %31, %26
  %37 = load ptr, ptr %9, align 8, !tbaa !92
  store ptr %37, ptr %4, align 8
  store i32 1, ptr %11, align 4
  br label %38

38:                                               ; preds = %36, %25, %18
  call void @llvm.lifetime.end.p0(i64 8, ptr %10) #5
  call void @llvm.lifetime.end.p0(i64 8, ptr %9) #5
  call void @llvm.lifetime.end.p0(i64 8, ptr %8) #5
  %39 = load ptr, ptr %4, align 8
  ret ptr %39
}